target datalayout = "e-m:e-p270:32:32-p271:32:32-p272:64:64-i64:64-i128:128-f80:128-n8:16:32:64-S128"
target triple = "x86_64-pc-linux-gnu"

%struct.MOVAtom = type { i32, i64 }

; Function Attrs: nounwind uwtable
define internal i32 @mov_read_meta(ptr noundef %0, ptr noundef %1, i32 %2, i64 %3) #0 {
  %5 = alloca i32, align 4
  %6 = alloca %struct.MOVAtom, align 8
  %7 = alloca ptr, align 8
  %8 = alloca ptr, align 8
  %9 = alloca i32, align 4
  %10 = alloca i32, align 4
  %11 = getelementptr inbounds nuw { i32, i64 }, ptr %6, i32 0, i32 0
  store i32 %2, ptr %11, align 8
  %12 = getelementptr inbounds nuw { i32, i64 }, ptr %6, i32 0, i32 1
  store i64 %3, ptr %12, align 8
  store ptr %0, ptr %7, align 8, !tbaa !4
  store ptr %1, ptr %8, align 8, !tbaa !9
  br label %13

13:                                               ; preds = %46, %4
  %14 = getelementptr inbounds nuw %struct.MOVAtom, ptr %6, i32 0, i32 1
  %15 = load i64, ptr %14, align 8, !tbaa !58
  %16 = icmp sgt i64 %15, 8
  br i1 %16, label %17, label %47

17:                                               ; preds = %13
  call void @llvm.lifetime.start.p0(i64 4, ptr %9) #14
  %18 = load ptr, ptr %8, align 8, !tbaa !9
  %19 = call i32 @avio_feof(ptr noundef %18)
  %20 = icmp ne i32 %19, 0
  br i1 %20, label %21, label %22

21:                                               ; preds = %17
  store i32 -541478725, ptr %5, align 4
  store i32 1, ptr %10, align 4
  br label %44

22:                                               ; preds = %17
  %23 = load ptr, ptr %8, align 8, !tbaa !9
  %24 = call i32 @avio_rl32(ptr noundef %23)
  store i32 %24, ptr %9, align 4, !tbaa !11
  %25 = getelementptr inbounds nuw %struct.MOVAtom, ptr %6, i32 0, i32 1
  %26 = load i64, ptr %25, align 8, !tbaa !58
  %27 = sub nsw i64 %26, 4
  store i64 %27, ptr %25, align 8, !tbaa !58
  %28 = load i32, ptr %9, align 4, !tbaa !11
  %29 = icmp eq i32 %28, 1919706216
  br i1 %29, label %30, label %43

30:                                               ; preds = %22
  %31 = load ptr, ptr %8, align 8, !tbaa !9
  %32 = call i64 @avio_seek(ptr noundef %31, i64 noundef -8, i32 noundef 1)
  %33 = getelementptr inbounds nuw %struct.MOVAtom, ptr %6, i32 0, i32 1
  %34 = load i64, ptr %33, align 8, !tbaa !58
  %35 = add nsw i64 %34, 8
  store i64 %35, ptr %33, align 8, !tbaa !58
  %36 = load ptr, ptr %7, align 8, !tbaa !4
  %37 = load ptr, ptr %8, align 8, !tbaa !9
  %38 = getelementptr inbounds nuw { i32, i64 }, ptr %6, i32 0, i32 0
  %39 = load i32, ptr %38, align 8
  %40 = getelementptr inbounds nuw { i32, i64 }, ptr %6, i32 0, i32 1
  %41 = load i64, ptr %40, align 8
  %42 = call i32 @mov_read_default(ptr noundef %36, ptr noundef %37, i32 %39, i64 %41)
  store i32 %42, ptr %5, align 4
  store i32 1, ptr %10, align 4
  br label %44

43:                                               ; preds = %22
  store i32 0, ptr %10, align 4
  br label %44

44:                                               ; preds = %43, %30, %21
  call void @llvm.lifetime.end.p0(i64 4, ptr %9) #14
  %45 = load i32, ptr %10, align 4
  switch i32 %45, label %50 [
    i32 0, label %46
    i32 1, label %48
  ]

46:                                               ; preds = %44
  br label %13, !llvm.loop !345

47:                                               ; preds = %13
  store i32 0, ptr %5, align 4
  br label %48

48:                                               ; preds = %47, %44
  %49 = load i32, ptr %5, align 4
  ret i32 %49

50:                                               ; preds = %44
  unreachable
}