; Function Attrs: nounwind uwtable
define internal range(i32 -2147483648, 1) i32 @mov_read_meta(ptr noundef %0, ptr noundef %1, i32 %2, i64 %3) #0 {
  %5 = icmp sgt i64 %3, 8
  br i1 %5, label %.lr.ph, label %.thread

.lr.ph:                                           ; preds = %4, %14
  %.sroa.2.016 = phi i64 [ %15, %14 ], [ %3, %4 ]
  %6 = tail call i32 @avio_feof(ptr noundef %1) #16
  %.not = icmp eq i32 %6, 0
  br i1 %.not, label %7, label %.thread

7:                                                ; preds = %.lr.ph
  %8 = tail call i32 @avio_rl32(ptr noundef %1) #16
  %9 = icmp eq i32 %8, 1919706216
  br i1 %9, label %10, label %14

10:                                               ; preds = %7
  %11 = tail call i64 @avio_seek(ptr noundef %1, i64 noundef -8, i32 noundef 1) #16
  %12 = add nuw nsw i64 %.sroa.2.016, 4
  %13 = tail call i32 @mov_read_default(ptr noundef %0, ptr noundef %1, i32 %2, i64 %12)
  br label %.thread

14:                                               ; preds = %7
  %15 = add nsw i64 %.sroa.2.016, -4
  %16 = icmp sgt i64 %.sroa.2.016, 12
  br i1 %16, label %.lr.ph, label %.thread

.thread:                                          ; preds = %14, %.lr.ph, %4, %10
  %.2 = phi i32 [ %13, %10 ], [ 0, %4 ], [ 0, %14 ], [ -541478725, %.lr.ph ]
  ret i32 %.2
}